; Function Attrs: mustprogress nounwind uwtable
define hidden void @_ZN9CodeCache22maybe_restart_compilerEm(i64 noundef %0) local_unnamed_addr #1 align 2 {
  %2 = alloca %class.EventJITRestart, align 8
  %3 = load i8, ptr @UseCompiler, align 1
  %4 = trunc i8 %3 to i1
  br i1 %4, label %5, label %_ZN13CompileBroker23should_compile_new_jobsEv.exit

5:                                                ; preds = %1
  %6 = load volatile i32, ptr @_ZN13CompileBroker24_should_compile_new_jobsE, align 4
  %7 = icmp eq i32 %6, 1
  br label %_ZN13CompileBroker23should_compile_new_jobsEv.exit

_ZN13CompileBroker23should_compile_new_jobsEv.exit: ; preds = %1, %5
  %8 = phi i1 [ false, %1 ], [ %7, %5 ]
  %9 = icmp eq i64 %0, 0
  %or.cond.not = or i1 %9, %8
  br i1 %or.cond.not, label %32, label %10

10:                                               ; preds = %_ZN13CompileBroker23should_compile_new_jobsEv.exit
  %11 = tail call noundef i32 asm sideeffect "lock cmpxchgl $1,($3)", "={ax},r,{ax},r,~{cc},~{memory},~{dirflag},~{fpsr},~{flags}"(i32 1, i32 0, ptr nonnull @_ZN13CompileBroker24_should_compile_new_jobsE) #20, !srcloc !42
  %12 = icmp eq i32 %11, 0
  br i1 %12, label %.sink.split.i, label %_ZN13CompileBroker27set_should_compile_new_jobsEi.exit

.sink.split.i:                                    ; preds = %10
  %13 = load i32, ptr @_ZN13CompileBroker31_total_compiler_restarted_countE, align 4
  %14 = add i32 %13, 1
  store i32 %14, ptr @_ZN13CompileBroker31_total_compiler_restarted_countE, align 4
  br label %_ZN13CompileBroker27set_should_compile_new_jobsEi.exit

_ZN13CompileBroker27set_should_compile_new_jobsEi.exit: ; preds = %10, %.sink.split.i
  %15 = load volatile ptr, ptr getelementptr inbounds (i8, ptr @_ZN16LogTagSetMappingILN6LogTag4typeE19ELS1_0ELS1_0ELS1_0ELS1_0ELS1_0EE7_tagsetE, i64 64), align 8
  %.not = icmp eq ptr %15, null
  br i1 %.not, label %17, label %16

16:                                               ; preds = %_ZN13CompileBroker27set_should_compile_new_jobsEi.exit
  tail call void (ptr, ...) @_ZN7LogImplILN6LogTag4typeE19ELS1_0ELS1_0ELS1_0ELS1_0ELS1_0EE5writeILN8LogLevel4typeE3EEEvPKcz(ptr noundef nonnull @.str.44)
  br label %17

17:                                               ; preds = %_ZN13CompileBroker27set_should_compile_new_jobsEi.exit, %16
  %18 = getelementptr inbounds i8, ptr %2, i64 24
  call void @llvm.memset.p0.i64(ptr noundef nonnull align 8 dereferenceable(19) %2, i8 0, i64 19, i1 false)
  store i64 %0, ptr %18, align 8
  %19 = load ptr, ptr @_ZN9CodeCache16_allocable_heapsE, align 8
  %20 = load i32, ptr %19, align 4
  %.not7.i = icmp eq i32 %20, 0
  br i1 %.not7.i, label %_ZN9CodeCache12max_capacityEv.exit, label %.lr.ph.i

.lr.ph.i:                                         ; preds = %17
  %21 = getelementptr inbounds i8, ptr %19, i64 8
  br label %22

22:                                               ; preds = %22, %.lr.ph.i
  %indvars.iv.i = phi i64 [ 0, %.lr.ph.i ], [ %indvars.iv.next.i, %22 ]
  %.09.i = phi i64 [ 0, %.lr.ph.i ], [ %27, %22 ]
  %23 = load ptr, ptr %21, align 8
  %24 = getelementptr inbounds ptr, ptr %23, i64 %indvars.iv.i
  %25 = load ptr, ptr %24, align 8
  %26 = tail call noundef i64 @_ZNK8CodeHeap12max_capacityEv(ptr noundef nonnull align 8 dereferenceable(336) %25) #20
  %27 = add i64 %26, %.09.i
  %indvars.iv.next.i = add nuw nsw i64 %indvars.iv.i, 1
  %28 = load ptr, ptr @_ZN9CodeCache16_allocable_heapsE, align 8
  %29 = load i32, ptr %28, align 4
  %30 = zext i32 %29 to i64
  %.not.i = icmp eq i64 %indvars.iv.next.i, %30
  br i1 %.not.i, label %_ZN9CodeCache12max_capacityEv.exit, label %22, !llvm.loop !36

_ZN9CodeCache12max_capacityEv.exit:               ; preds = %22, %17
  %.0.lcssa.i = phi i64 [ 0, %17 ], [ %27, %22 ]
  %31 = getelementptr inbounds i8, ptr %2, i64 32
  store i64 %.0.lcssa.i, ptr %31, align 8
  call void @_ZN8JfrEventI15EventJITRestartE6commitEv(ptr noundef nonnull align 8 dereferenceable(19) %2)
  br label %32

32:                                               ; preds = %_ZN9CodeCache12max_capacityEv.exit, %_ZN13CompileBroker23should_compile_new_jobsEv.exit
  ret void
}